; Function Attrs: mustprogress uwtable
define void @_ZN4base10SetFdLimitEj(i32 noundef %0) local_unnamed_addr #3 personality ptr @__gxx_personality_v0 {
  %2 = alloca %struct.rlimit, align 8
  %3 = alloca %"class.logging::ErrnoLogMessage", align 8
  %4 = alloca %"class.logging::ErrnoLogMessage", align 8
  call void @llvm.lifetime.start.p0(i64 16, ptr nonnull %2) #9
  %5 = call i32 @getrlimit(i32 noundef 7, ptr noundef nonnull %2) #9
  %6 = icmp eq i32 %5, 0
  br i1 %6, label %7, label %23

7:                                                ; preds = %1
  %8 = getelementptr inbounds nuw i8, ptr %2, i64 8
  %9 = load i64, ptr %8, align 8, !tbaa !11
  %.not = icmp ne i64 %9, 0
  %10 = zext i32 %0 to i64
  %11 = icmp ult i64 %9, %10
  %or.cond = and i1 %.not, %11
  %12 = trunc nuw i64 %9 to i32
  %.017 = select i1 %or.cond, i32 %12, i32 %0
  %13 = zext i32 %.017 to i64
  store i64 %13, ptr %2, align 8, !tbaa !9
  %14 = call i32 @setrlimit(i32 noundef 7, ptr noundef nonnull %2) #9
  %.not19 = icmp eq i32 %14, 0
  br i1 %.not19, label %.critedge22, label %15

15:                                               ; preds = %7
  %16 = call noundef zeroext i1 @_ZN7logging22ShouldCreateLogMessageEi(i32 noundef 0)
  br i1 %16, label %17, label %.critedge22

17:                                               ; preds = %15
  call void @llvm.lifetime.start.p0(i64 416, ptr nonnull %3) #9
  %18 = call noundef i32 @_ZN7logging22GetLastSystemErrorCodeEv()
  call void @_ZN7logging15ErrnoLogMessageC1EPKciii(ptr noundef nonnull align 8 dereferenceable(416) %3, ptr noundef nonnull @.str.1, i32 noundef 71, i32 noundef 0, i32 noundef %18)
  %19 = getelementptr inbounds nuw i8, ptr %3, i64 16
  %20 = invoke noundef nonnull align 8 dereferenceable(8) ptr @_ZSt16__ostream_insertIcSt11char_traitsIcEERSt13basic_ostreamIT_T0_ES6_PKS3_l(ptr noundef nonnull align 8 dereferenceable(8) %19, ptr noundef nonnull @.str.2, i64 noundef 35)
          to label %.critedge unwind label %21

.critedge:                                        ; preds = %17
  call void @_ZN7logging15ErrnoLogMessageD1Ev(ptr noundef nonnull align 8 dereferenceable(416) %3) #9
  call void @llvm.lifetime.end.p0(i64 416, ptr nonnull %3) #9
  br label %.critedge22

21:                                               ; preds = %17
  %22 = landingpad { ptr, i32 }
          cleanup
  call void @_ZN7logging15ErrnoLogMessageD1Ev(ptr noundef nonnull align 8 dereferenceable(416) %3) #9
  call void @llvm.lifetime.end.p0(i64 416, ptr nonnull %3) #9
  br label %31

23:                                               ; preds = %1
  %24 = call noundef zeroext i1 @_ZN7logging22ShouldCreateLogMessageEi(i32 noundef 0)
  br i1 %24, label %25, label %.critedge22

25:                                               ; preds = %23
  call void @llvm.lifetime.start.p0(i64 416, ptr nonnull %4) #9
  %26 = call noundef i32 @_ZN7logging22GetLastSystemErrorCodeEv()
  call void @_ZN7logging15ErrnoLogMessageC1EPKciii(ptr noundef nonnull align 8 dereferenceable(416) %4, ptr noundef nonnull @.str.1, i32 noundef 74, i32 noundef 0, i32 noundef %26)
  %27 = getelementptr inbounds nuw i8, ptr %4, i64 16
  %28 = invoke noundef nonnull align 8 dereferenceable(8) ptr @_ZSt16__ostream_insertIcSt11char_traitsIcEERSt13basic_ostreamIT_T0_ES6_PKS3_l(ptr noundef nonnull align 8 dereferenceable(8) %27, ptr noundef nonnull @.str.3, i64 noundef 35)
          to label %.critedge24 unwind label %29

.critedge24:                                      ; preds = %25
  call void @_ZN7logging15ErrnoLogMessageD1Ev(ptr noundef nonnull align 8 dereferenceable(416) %4) #9
  call void @llvm.lifetime.end.p0(i64 416, ptr nonnull %4) #9
  br label %.critedge22

29:                                               ; preds = %25
  %30 = landingpad { ptr, i32 }
          cleanup
  call void @_ZN7logging15ErrnoLogMessageD1Ev(ptr noundef nonnull align 8 dereferenceable(416) %4) #9
  call void @llvm.lifetime.end.p0(i64 416, ptr nonnull %4) #9
  br label %31

.critedge22:                                      ; preds = %.critedge24, %23, %.critedge, %15, %7
  call void @llvm.lifetime.end.p0(i64 16, ptr nonnull %2) #9
  ret void

31:                                               ; preds = %29, %21
  %.pn = phi { ptr, i32 } [ %22, %21 ], [ %30, %29 ]
  call void @llvm.lifetime.end.p0(i64 16, ptr nonnull %2) #9
  resume { ptr, i32 } %.pn
}